target datalayout = "e-m:e-p270:32:32-p271:32:32-p272:64:64-i64:64-i128:128-f80:128-n8:16:32:64-S128"
target triple = "x86_64-pc-linux-gnu"

%struct.sockaddr_in = type { i16, i16, %struct.in_addr, [8 x i8] }
%struct.in_addr = type { i32 }
%struct.sockaddr_in6 = type { i16, i16, i32, %struct.in6_addr, i32 }
%struct.in6_addr = type { %union.anon }
%union.anon = type { [4 x i32] }
%struct.sockaddr = type { i16, [14 x i8] }

; Function Attrs: nounwind uwtable
define dso_local i32 @uv_ip_name(ptr noundef %0, ptr noundef %1, i64 noundef %2) #0 {
  %4 = alloca i32, align 4
  %5 = alloca ptr, align 8
  %6 = alloca ptr, align 8
  %7 = alloca i64, align 8
  store ptr %0, ptr %5, align 8, !tbaa !38
  store ptr %1, ptr %6, align 8, !tbaa !4
  store i64 %2, ptr %7, align 8, !tbaa !9
  %8 = load ptr, ptr %5, align 8, !tbaa !38
  %9 = getelementptr inbounds nuw %struct.sockaddr, ptr %8, i32 0, i32 0
  %10 = load i16, ptr %9, align 2, !tbaa !40
  %11 = zext i16 %10 to i32
  switch i32 %11, label %24 [
    i32 2, label %12
    i32 10, label %18
  ]

12:                                               ; preds = %3
  %13 = load ptr, ptr %5, align 8, !tbaa !38
  %14 = getelementptr inbounds nuw %struct.sockaddr_in, ptr %13, i32 0, i32 2
  %15 = load ptr, ptr %6, align 8, !tbaa !4
  %16 = load i64, ptr %7, align 8, !tbaa !9
  %17 = call i32 @uv_inet_ntop(i32 noundef 2, ptr noundef %14, ptr noundef %15, i64 noundef %16)
  store i32 %17, ptr %4, align 4
  br label %25

18:                                               ; preds = %3
  %19 = load ptr, ptr %5, align 8, !tbaa !38
  %20 = getelementptr inbounds nuw %struct.sockaddr_in6, ptr %19, i32 0, i32 3
  %21 = load ptr, ptr %6, align 8, !tbaa !4
  %22 = load i64, ptr %7, align 8, !tbaa !9
  %23 = call i32 @uv_inet_ntop(i32 noundef 10, ptr noundef %20, ptr noundef %21, i64 noundef %22)
  store i32 %23, ptr %4, align 4
  br label %25

24:                                               ; preds = %3
  store i32 -97, ptr %4, align 4
  br label %25

25:                                               ; preds = %24, %18, %12
  %26 = load i32, ptr %4, align 4
  ret i32 %26
}